; Function Attrs: mustprogress uwtable
define void @_ZN8QuantLib23AnalyticPDFHestonEngineC2EN5boost10shared_ptrINS_11HestonModelEEEdm(ptr noundef nonnull align 8 dereferenceable(384) %this, ptr nocapture noundef %model, double noundef %integrationEps_, i64 noundef %maxIntegrationIterations) unnamed_addr #7 align 2 personality ptr @__gxx_personality_v0 {
entry:
  %ref.tmp.i = alloca %"class.boost::shared_ptr.27", align 8
  %agg.tmp = alloca %"class.QuantLib::Handle", align 8
  call void @llvm.lifetime.start.p0(i64 16, ptr nonnull %ref.tmp.i) #26
  call void @llvm.memset.p0.i64(ptr noundef nonnull align 8 dereferenceable(16) %ref.tmp.i, i8 0, i64 16, i1 false)
  invoke void @_ZN8QuantLib6HandleINS_11HestonModelEEC2EON5boost10shared_ptrIS1_EEb(ptr noundef nonnull align 8 dereferenceable(16) %agg.tmp, ptr noundef nonnull align 8 dereferenceable(16) %ref.tmp.i, i1 noundef zeroext true)
          to label %invoke.cont.i unwind label %lpad.i

invoke.cont.i:                                    ; preds = %entry
  %pn.i.i = getelementptr inbounds nuw i8, ptr %ref.tmp.i, i64 8
  %0 = load ptr, ptr %pn.i.i, align 8, !tbaa !37
  %cmp.not.i.i.i = icmp eq ptr %0, null
  br i1 %cmp.not.i.i.i, label %_ZN8QuantLib6HandleINS_11HestonModelEEC2Ev.exit, label %if.then.i.i.i

if.then.i.i.i:                                    ; preds = %invoke.cont.i
  %use_count_.i.i.i.i = getelementptr inbounds nuw i8, ptr %0, i64 8
  %1 = atomicrmw sub ptr %use_count_.i.i.i.i, i32 1 acq_rel, align 4
  %cmp.i.i.i.i = icmp eq i32 %1, 1
  br i1 %cmp.i.i.i.i, label %if.then.i.i.i.i, label %_ZN8QuantLib6HandleINS_11HestonModelEEC2Ev.exit

if.then.i.i.i.i:                                  ; preds = %if.then.i.i.i
  %vtable.i.i.i.i = load ptr, ptr %0, align 8, !tbaa !35
  %vfn.i.i.i.i = getelementptr inbounds i8, ptr %vtable.i.i.i.i, i64 16
  %2 = load ptr, ptr %vfn.i.i.i.i, align 8
  invoke void %2(ptr noundef nonnull align 8 dereferenceable(16) %0)
          to label %.noexc.i.i.i unwind label %terminate.lpad.i.i.i

.noexc.i.i.i:                                     ; preds = %if.then.i.i.i.i
  %weak_count_.i.i.i.i.i = getelementptr inbounds nuw i8, ptr %0, i64 12
  %3 = atomicrmw sub ptr %weak_count_.i.i.i.i.i, i32 1 acq_rel, align 4
  %cmp.i.i.i.i.i = icmp eq i32 %3, 1
  br i1 %cmp.i.i.i.i.i, label %if.then.i.i.i.i.i, label %_ZN8QuantLib6HandleINS_11HestonModelEEC2Ev.exit

if.then.i.i.i.i.i:                                ; preds = %.noexc.i.i.i
  %vtable.i.i.i.i.i = load ptr, ptr %0, align 8, !tbaa !35
  %vfn.i.i.i.i.i = getelementptr inbounds i8, ptr %vtable.i.i.i.i.i, i64 24
  %4 = load ptr, ptr %vfn.i.i.i.i.i, align 8
  invoke void %4(ptr noundef nonnull align 8 dereferenceable(16) %0)
          to label %_ZN8QuantLib6HandleINS_11HestonModelEEC2Ev.exit unwind label %terminate.lpad.i.i.i

terminate.lpad.i.i.i:                             ; preds = %if.then.i.i.i.i.i, %if.then.i.i.i.i
  %5 = landingpad { ptr, i32 }
          catch ptr null
  %6 = extractvalue { ptr, i32 } %5, 0
  call void @__clang_call_terminate(ptr %6) #27
  unreachable

common.resume:                                    ; preds = %lpad, %lpad.i
  %common.resume.op = phi { ptr, i32 } [ %7, %lpad.i ], [ %17, %lpad ]
  resume { ptr, i32 } %common.resume.op

lpad.i:                                           ; preds = %entry
  %7 = landingpad { ptr, i32 }
          cleanup
  call void @_ZN5boost10shared_ptrIN8QuantLib11HestonModelEED2Ev(ptr noundef nonnull align 8 dereferenceable(16) %ref.tmp.i) #26
  call void @llvm.lifetime.end.p0(i64 16, ptr nonnull %ref.tmp.i) #26
  br label %common.resume

_ZN8QuantLib6HandleINS_11HestonModelEEC2Ev.exit:  ; preds = %invoke.cont.i, %if.then.i.i.i, %.noexc.i.i.i, %if.then.i.i.i.i.i
  call void @llvm.lifetime.end.p0(i64 16, ptr nonnull %ref.tmp.i) #26
  invoke void @_ZN8QuantLib18GenericModelEngineINS_11HestonModelENS_6Option9argumentsENS_14OneAssetOption7resultsEEC2ENS_6HandleIS1_EE(ptr noundef nonnull align 8 dereferenceable(352) %this, ptr noundef nonnull %agg.tmp)
          to label %invoke.cont unwind label %lpad

invoke.cont:                                      ; preds = %_ZN8QuantLib6HandleINS_11HestonModelEEC2Ev.exit
  %pn.i.i1 = getelementptr inbounds nuw i8, ptr %agg.tmp, i64 8
  %8 = load ptr, ptr %pn.i.i1, align 8, !tbaa !37
  %cmp.not.i.i.i2 = icmp eq ptr %8, null
  br i1 %cmp.not.i.i.i2, label %_ZN8QuantLib6HandleINS_11HestonModelEED2Ev.exit, label %if.then.i.i.i3

if.then.i.i.i3:                                   ; preds = %invoke.cont
  %use_count_.i.i.i.i4 = getelementptr inbounds nuw i8, ptr %8, i64 8
  %9 = atomicrmw sub ptr %use_count_.i.i.i.i4, i32 1 acq_rel, align 4
  %cmp.i.i.i.i5 = icmp eq i32 %9, 1
  br i1 %cmp.i.i.i.i5, label %if.then.i.i.i.i6, label %_ZN8QuantLib6HandleINS_11HestonModelEED2Ev.exit

if.then.i.i.i.i6:                                 ; preds = %if.then.i.i.i3
  %vtable.i.i.i.i7 = load ptr, ptr %8, align 8, !tbaa !35
  %vfn.i.i.i.i8 = getelementptr inbounds i8, ptr %vtable.i.i.i.i7, i64 16
  %10 = load ptr, ptr %vfn.i.i.i.i8, align 8
  invoke void %10(ptr noundef nonnull align 8 dereferenceable(16) %8)
          to label %.noexc.i.i.i10 unwind label %terminate.lpad.i.i.i9

.noexc.i.i.i10:                                   ; preds = %if.then.i.i.i.i6
  %weak_count_.i.i.i.i.i11 = getelementptr inbounds nuw i8, ptr %8, i64 12
  %11 = atomicrmw sub ptr %weak_count_.i.i.i.i.i11, i32 1 acq_rel, align 4
  %cmp.i.i.i.i.i12 = icmp eq i32 %11, 1
  br i1 %cmp.i.i.i.i.i12, label %if.then.i.i.i.i.i13, label %_ZN8QuantLib6HandleINS_11HestonModelEED2Ev.exit

if.then.i.i.i.i.i13:                              ; preds = %.noexc.i.i.i10
  %vtable.i.i.i.i.i14 = load ptr, ptr %8, align 8, !tbaa !35
  %vfn.i.i.i.i.i15 = getelementptr inbounds i8, ptr %vtable.i.i.i.i.i14, i64 24
  %12 = load ptr, ptr %vfn.i.i.i.i.i15, align 8
  invoke void %12(ptr noundef nonnull align 8 dereferenceable(16) %8)
          to label %_ZN8QuantLib6HandleINS_11HestonModelEED2Ev.exit unwind label %terminate.lpad.i.i.i9

terminate.lpad.i.i.i9:                            ; preds = %if.then.i.i.i.i.i13, %if.then.i.i.i.i6
  %13 = landingpad { ptr, i32 }
          catch ptr null
  %14 = extractvalue { ptr, i32 } %13, 0
  call void @__clang_call_terminate(ptr %14) #27
  unreachable

_ZN8QuantLib6HandleINS_11HestonModelEED2Ev.exit:  ; preds = %invoke.cont, %if.then.i.i.i3, %.noexc.i.i.i10, %if.then.i.i.i.i.i13
  store ptr getelementptr inbounds inrange(-16, 56) (i8, ptr @_ZTVN8QuantLib23AnalyticPDFHestonEngineE, i64 16), ptr %this, align 8, !tbaa !35
  %add.ptr = getelementptr inbounds i8, ptr %this, i64 56
  store ptr getelementptr inbounds inrange(-16, 32) (i8, ptr @_ZTVN8QuantLib23AnalyticPDFHestonEngineE, i64 88), ptr %add.ptr, align 8, !tbaa !35
  %maxIntegrationIterations_ = getelementptr inbounds nuw i8, ptr %this, i64 352
  store i64 %maxIntegrationIterations, ptr %maxIntegrationIterations_, align 8, !tbaa !39
  %integrationEps_2 = getelementptr inbounds nuw i8, ptr %this, i64 360
  store double %integrationEps_, ptr %integrationEps_2, align 8, !tbaa !68
  %model_ = getelementptr inbounds nuw i8, ptr %this, i64 368
  %15 = load ptr, ptr %model, align 8, !tbaa !69
  store ptr %15, ptr %model_, align 8, !tbaa !69
  %pn.i = getelementptr inbounds nuw i8, ptr %this, i64 376
  %pn3.i = getelementptr inbounds nuw i8, ptr %model, i64 8
  %16 = load ptr, ptr %pn3.i, align 8, !tbaa !37
  store ptr %16, ptr %pn.i, align 8, !tbaa !37
  call void @llvm.memset.p0.i64(ptr noundef nonnull align 8 dereferenceable(16) %model, i8 0, i64 16, i1 false)
  ret void

lpad:                                             ; preds = %_ZN8QuantLib6HandleINS_11HestonModelEEC2Ev.exit
  %17 = landingpad { ptr, i32 }
          cleanup
  call void @_ZN8QuantLib6HandleINS_11HestonModelEED2Ev(ptr noundef nonnull align 8 dereferenceable(16) %agg.tmp) #26
  br label %common.resume
}